target datalayout = "e-m:e-p270:32:32-p271:32:32-p272:64:64-i64:64-i128:128-f80:128-n8:16:32:64-S128"
target triple = "x86_64-pc-linux-gnu"

%struct.V360Context = type { ptr, i32, i32, i32, i32, i32, i32, i32, ptr, ptr, ptr, ptr, ptr, [6 x i32], [6 x i32], [6 x i32], [6 x i32], [3 x i32], i32, i32, float, float, i32, i32, float, float, float, float, float, i32, i32, i32, i32, i32, i32, i32, float, float, float, float, float, float, [2 x float], [2 x float], [2 x [4 x float]], [3 x float], i32, i32, i32, i32, [4 x i32], [4 x i32], [4 x i32], [4 x i32], [4 x i32], [4 x i32], [4 x i32], [4 x i32], [4 x i32], [4 x i32], [4 x i32], i32, i32, i32, i32, i32, i32, ptr, [4 x i32], ptr, ptr, ptr, ptr, ptr }

; Function Attrs: alwaysinline nounwind willreturn memory(none) uwtable
define internal i32 @av_clip_c(i32 noundef %0, i32 noundef %1, i32 noundef %2) #3 {
  %4 = alloca i32, align 4
  %5 = alloca i32, align 4
  %6 = alloca i32, align 4
  %7 = alloca i32, align 4
  store i32 %0, ptr %5, align 4, !tbaa !9
  store i32 %1, ptr %6, align 4, !tbaa !9
  store i32 %2, ptr %7, align 4, !tbaa !9
  %8 = load i32, ptr %5, align 4, !tbaa !9
  %9 = load i32, ptr %6, align 4, !tbaa !9
  %10 = icmp slt i32 %8, %9
  br i1 %10, label %11, label %13

11:                                               ; preds = %3
  %12 = load i32, ptr %6, align 4, !tbaa !9
  store i32 %12, ptr %4, align 4
  br label %21

13:                                               ; preds = %3
  %14 = load i32, ptr %5, align 4, !tbaa !9
  %15 = load i32, ptr %7, align 4, !tbaa !9
  %16 = icmp sgt i32 %14, %15
  br i1 %16, label %17, label %19

17:                                               ; preds = %13
  %18 = load i32, ptr %7, align 4, !tbaa !9
  store i32 %18, ptr %4, align 4
  br label %21

19:                                               ; preds = %13
  %20 = load i32, ptr %5, align 4, !tbaa !9
  store i32 %20, ptr %4, align 4
  br label %21

21:                                               ; preds = %19, %17, %11
  %22 = load i32, ptr %4, align 4
  ret i32 %22
}

; Function Attrs: alwaysinline nounwind uwtable
define internal float @scale(float noundef %0, float noundef %1) #12 {
  %3 = alloca float, align 4
  %4 = alloca float, align 4
  store float %0, ptr %3, align 4, !tbaa !99
  store float %1, ptr %4, align 4, !tbaa !99
  %5 = load float, ptr %3, align 4, !tbaa !99
  %6 = call nsz float @llvm.fmuladd.f32(float 5.000000e-01, float %5, float 5.000000e-01)
  %7 = load float, ptr %4, align 4, !tbaa !99
  %8 = fsub nsz float %7, 1.000000e+00
  %9 = fmul nsz float %6, %8
  ret float %9
}

; Function Attrs: nounwind uwtable
define internal i32 @xyz_to_fisheye(ptr noundef %0, ptr noundef %1, i32 noundef %2, i32 noundef %3, ptr noundef %4, ptr noundef %5, ptr noundef %6, ptr noundef %7) #0 {
  %9 = alloca ptr, align 8
  %10 = alloca ptr, align 8
  %11 = alloca i32, align 4
  %12 = alloca i32, align 4
  %13 = alloca ptr, align 8
  %14 = alloca ptr, align 8
  %15 = alloca ptr, align 8
  %16 = alloca ptr, align 8
  %17 = alloca float, align 4
  %18 = alloca float, align 4
  %19 = alloca float, align 4
  %20 = alloca float, align 4
  %21 = alloca float, align 4
  %22 = alloca i32, align 4
  %23 = alloca i32, align 4
  %24 = alloca i32, align 4
  %25 = alloca i32, align 4
  %26 = alloca i32, align 4
  %27 = alloca i32, align 4
  store ptr %0, ptr %9, align 8, !tbaa !4
  store ptr %1, ptr %10, align 8, !tbaa !188
  store i32 %2, ptr %11, align 4, !tbaa !9
  store i32 %3, ptr %12, align 4, !tbaa !9
  store ptr %4, ptr %13, align 8, !tbaa !21
  store ptr %5, ptr %14, align 8, !tbaa !21
  store ptr %6, ptr %15, align 8, !tbaa !188
  store ptr %7, ptr %16, align 8, !tbaa !188
  call void @llvm.lifetime.start.p0(i64 4, ptr %17) #13
  %28 = load ptr, ptr %10, align 8, !tbaa !188
  %29 = getelementptr inbounds float, ptr %28, i64 0
  %30 = load float, ptr %29, align 4, !tbaa !99
  %31 = load ptr, ptr %10, align 8, !tbaa !188
  %32 = getelementptr inbounds float, ptr %31, i64 1
  %33 = load float, ptr %32, align 4, !tbaa !99
  %34 = call nsz float @hypotf(float noundef %30, float noundef %33) #14
  store float %34, ptr %17, align 4, !tbaa !99
  call void @llvm.lifetime.start.p0(i64 4, ptr %18) #13
  %35 = load float, ptr %17, align 4, !tbaa !99
  %36 = fcmp nsz ogt float %35, 0.000000e+00
  br i1 %36, label %37, label %39

37:                                               ; preds = %8
  %38 = load float, ptr %17, align 4, !tbaa !99
  br label %40

39:                                               ; preds = %8
  br label %40

40:                                               ; preds = %39, %37
  %41 = phi nsz float [ %38, %37 ], [ 1.000000e+00, %39 ]
  store float %41, ptr %18, align 4, !tbaa !99
  call void @llvm.lifetime.start.p0(i64 4, ptr %19) #13
  %42 = load float, ptr %17, align 4, !tbaa !99
  %43 = load ptr, ptr %10, align 8, !tbaa !188
  %44 = getelementptr inbounds float, ptr %43, i64 2
  %45 = load float, ptr %44, align 4, !tbaa !99
  %46 = call nsz float @llvm.atan2.f32(float %42, float %45)
  %47 = fpext nsz float %46 to double
  %48 = fdiv nsz double %47, 0x400921FB54442D18
  %49 = fptrunc nsz double %48 to float
  store float %49, ptr %19, align 4, !tbaa !99
  call void @llvm.lifetime.start.p0(i64 4, ptr %20) #13
  %50 = load ptr, ptr %10, align 8, !tbaa !188
  %51 = getelementptr inbounds float, ptr %50, i64 0
  %52 = load float, ptr %51, align 4, !tbaa !99
  %53 = load float, ptr %18, align 4, !tbaa !99
  %54 = fdiv nsz float %52, %53
  %55 = load float, ptr %19, align 4, !tbaa !99
  %56 = fmul nsz float %54, %55
  %57 = load ptr, ptr %9, align 8, !tbaa !4
  %58 = getelementptr inbounds nuw %struct.V360Context, ptr %57, i32 0, i32 43
  %59 = getelementptr inbounds [2 x float], ptr %58, i64 0, i64 0
  %60 = load float, ptr %59, align 4, !tbaa !99
  %61 = fdiv nsz float %56, %60
  store float %61, ptr %20, align 4, !tbaa !99
  call void @llvm.lifetime.start.p0(i64 4, ptr %21) #13
  %62 = load ptr, ptr %10, align 8, !tbaa !188
  %63 = getelementptr inbounds float, ptr %62, i64 1
  %64 = load float, ptr %63, align 4, !tbaa !99
  %65 = load float, ptr %18, align 4, !tbaa !99
  %66 = fdiv nsz float %64, %65
  %67 = load float, ptr %19, align 4, !tbaa !99
  %68 = fmul nsz float %66, %67
  %69 = load ptr, ptr %9, align 8, !tbaa !4
  %70 = getelementptr inbounds nuw %struct.V360Context, ptr %69, i32 0, i32 43
  %71 = getelementptr inbounds [2 x float], ptr %70, i64 0, i64 1
  %72 = load float, ptr %71, align 4, !tbaa !99
  %73 = fdiv nsz float %68, %72
  store float %73, ptr %21, align 4, !tbaa !99
  call void @llvm.lifetime.start.p0(i64 4, ptr %22) #13
  %74 = load float, ptr %20, align 4, !tbaa !99
  %75 = fcmp nsz olt float -5.000000e-01, %74
  br i1 %75, label %76, label %85

76:                                               ; preds = %40
  %77 = load float, ptr %20, align 4, !tbaa !99
  %78 = fcmp nsz olt float %77, 5.000000e-01
  br i1 %78, label %79, label %85

79:                                               ; preds = %76
  %80 = load float, ptr %21, align 4, !tbaa !99
  %81 = fcmp nsz olt float -5.000000e-01, %80
  br i1 %81, label %82, label %85

82:                                               ; preds = %79
  %83 = load float, ptr %21, align 4, !tbaa !99
  %84 = fcmp nsz olt float %83, 5.000000e-01
  br label %85

85:                                               ; preds = %82, %79, %76, %40
  %86 = phi i1 [ false, %79 ], [ false, %76 ], [ false, %40 ], [ %84, %82 ]
  %87 = zext i1 %86 to i32
  store i32 %87, ptr %22, align 4, !tbaa !9
  call void @llvm.lifetime.start.p0(i64 4, ptr %23) #13
  call void @llvm.lifetime.start.p0(i64 4, ptr %24) #13
  %88 = load float, ptr %20, align 4, !tbaa !99
  %89 = fmul nsz float %88, 2.000000e+00
  %90 = load i32, ptr %11, align 4, !tbaa !9
  %91 = sitofp i32 %90 to float
  %92 = call nsz float @scale(float noundef %89, float noundef %91)
  store float %92, ptr %20, align 4, !tbaa !99
  %93 = load float, ptr %21, align 4, !tbaa !99
  %94 = fmul nsz float %93, 2.000000e+00
  %95 = load i32, ptr %12, align 4, !tbaa !9
  %96 = sitofp i32 %95 to float
  %97 = call nsz float @scale(float noundef %94, float noundef %96)
  store float %97, ptr %21, align 4, !tbaa !99
  %98 = load float, ptr %20, align 4, !tbaa !99
  %99 = call nsz float @llvm.floor.f32(float %98)
  %100 = fptosi float %99 to i32
  store i32 %100, ptr %23, align 4, !tbaa !9
  %101 = load float, ptr %21, align 4, !tbaa !99
  %102 = call nsz float @llvm.floor.f32(float %101)
  %103 = fptosi float %102 to i32
  store i32 %103, ptr %24, align 4, !tbaa !9
  %104 = load i32, ptr %22, align 4, !tbaa !9
  %105 = icmp ne i32 %104, 0
  br i1 %105, label %106, label %111

106:                                              ; preds = %85
  %107 = load float, ptr %20, align 4, !tbaa !99
  %108 = load i32, ptr %23, align 4, !tbaa !9
  %109 = sitofp i32 %108 to float
  %110 = fsub nsz float %107, %109
  br label %112

111:                                              ; preds = %85
  br label %112

112:                                              ; preds = %111, %106
  %113 = phi nsz float [ %110, %106 ], [ 0.000000e+00, %111 ]
  %114 = load ptr, ptr %15, align 8, !tbaa !188
  store float %113, ptr %114, align 4, !tbaa !99
  %115 = load i32, ptr %22, align 4, !tbaa !9
  %116 = icmp ne i32 %115, 0
  br i1 %116, label %117, label %122

117:                                              ; preds = %112
  %118 = load float, ptr %21, align 4, !tbaa !99
  %119 = load i32, ptr %24, align 4, !tbaa !9
  %120 = sitofp i32 %119 to float
  %121 = fsub nsz float %118, %120
  br label %123

122:                                              ; preds = %112
  br label %123

123:                                              ; preds = %122, %117
  %124 = phi nsz float [ %121, %117 ], [ 0.000000e+00, %122 ]
  %125 = load ptr, ptr %16, align 8, !tbaa !188
  store float %124, ptr %125, align 4, !tbaa !99
  call void @llvm.lifetime.start.p0(i64 4, ptr %25) #13
  store i32 0, ptr %25, align 4, !tbaa !9
  br label %126

126:                                              ; preds = %182, %123
  %127 = load i32, ptr %25, align 4, !tbaa !9
  %128 = icmp slt i32 %127, 4
  br i1 %128, label %130, label %129

129:                                              ; preds = %126
  store i32 2, ptr %26, align 4
  call void @llvm.lifetime.end.p0(i64 4, ptr %25) #13
  br label %185

130:                                              ; preds = %126
  call void @llvm.lifetime.start.p0(i64 4, ptr %27) #13
  store i32 0, ptr %27, align 4, !tbaa !9
  br label %131

131:                                              ; preds = %178, %130
  %132 = load i32, ptr %27, align 4, !tbaa !9
  %133 = icmp slt i32 %132, 4
  br i1 %133, label %135, label %134

134:                                              ; preds = %131
  store i32 5, ptr %26, align 4
  call void @llvm.lifetime.end.p0(i64 4, ptr %27) #13
  br label %181

135:                                              ; preds = %131
  %136 = load i32, ptr %22, align 4, !tbaa !9
  %137 = icmp ne i32 %136, 0
  br i1 %137, label %138, label %146

138:                                              ; preds = %135
  %139 = load i32, ptr %23, align 4, !tbaa !9
  %140 = load i32, ptr %27, align 4, !tbaa !9
  %141 = add nsw i32 %139, %140
  %142 = sub nsw i32 %141, 1
  %143 = load i32, ptr %11, align 4, !tbaa !9
  %144 = sub nsw i32 %143, 1
  %145 = call i32 @av_clip_c(i32 noundef %142, i32 noundef 0, i32 noundef %144) #14
  br label %147

146:                                              ; preds = %135
  br label %147

147:                                              ; preds = %146, %138
  %148 = phi i32 [ %145, %138 ], [ 0, %146 ]
  %149 = trunc i32 %148 to i16
  %150 = load ptr, ptr %13, align 8, !tbaa !21
  %151 = load i32, ptr %25, align 4, !tbaa !9
  %152 = sext i32 %151 to i64
  %153 = getelementptr inbounds [4 x i16], ptr %150, i64 %152
  %154 = load i32, ptr %27, align 4, !tbaa !9
  %155 = sext i32 %154 to i64
  %156 = getelementptr inbounds [4 x i16], ptr %153, i64 0, i64 %155
  store i16 %149, ptr %156, align 2, !tbaa !23
  %157 = load i32, ptr %22, align 4, !tbaa !9
  %158 = icmp ne i32 %157, 0
  br i1 %158, label %159, label %167

159:                                              ; preds = %147
  %160 = load i32, ptr %24, align 4, !tbaa !9
  %161 = load i32, ptr %25, align 4, !tbaa !9
  %162 = add nsw i32 %160, %161
  %163 = sub nsw i32 %162, 1
  %164 = load i32, ptr %12, align 4, !tbaa !9
  %165 = sub nsw i32 %164, 1
  %166 = call i32 @av_clip_c(i32 noundef %163, i32 noundef 0, i32 noundef %165) #14
  br label %168

167:                                              ; preds = %147
  br label %168

168:                                              ; preds = %167, %159
  %169 = phi i32 [ %166, %159 ], [ 0, %167 ]
  %170 = trunc i32 %169 to i16
  %171 = load ptr, ptr %14, align 8, !tbaa !21
  %172 = load i32, ptr %25, align 4, !tbaa !9
  %173 = sext i32 %172 to i64
  %174 = getelementptr inbounds [4 x i16], ptr %171, i64 %173
  %175 = load i32, ptr %27, align 4, !tbaa !9
  %176 = sext i32 %175 to i64
  %177 = getelementptr inbounds [4 x i16], ptr %174, i64 0, i64 %176
  store i16 %170, ptr %177, align 2, !tbaa !23
  br label %178

178:                                              ; preds = %168
  %179 = load i32, ptr %27, align 4, !tbaa !9
  %180 = add nsw i32 %179, 1
  store i32 %180, ptr %27, align 4, !tbaa !9
  br label %131, !llvm.loop !222

181:                                              ; preds = %134
  br label %182

182:                                              ; preds = %181
  %183 = load i32, ptr %25, align 4, !tbaa !9
  %184 = add nsw i32 %183, 1
  store i32 %184, ptr %25, align 4, !tbaa !9
  br label %126, !llvm.loop !223

185:                                              ; preds = %129
  %186 = load i32, ptr %22, align 4, !tbaa !9
  store i32 1, ptr %26, align 4
  call void @llvm.lifetime.end.p0(i64 4, ptr %24) #13
  call void @llvm.lifetime.end.p0(i64 4, ptr %23) #13
  call void @llvm.lifetime.end.p0(i64 4, ptr %22) #13
  call void @llvm.lifetime.end.p0(i64 4, ptr %21) #13
  call void @llvm.lifetime.end.p0(i64 4, ptr %20) #13
  call void @llvm.lifetime.end.p0(i64 4, ptr %19) #13
  call void @llvm.lifetime.end.p0(i64 4, ptr %18) #13
  call void @llvm.lifetime.end.p0(i64 4, ptr %17) #13
  ret i32 %186
}