; Function Attrs: nofree norecurse nosync nounwind memory(argmem: readwrite) uwtable
define internal range(i32 0, 2) i32 @xyz_to_fisheye(ptr noundef readonly captures(none) %0, ptr noundef readonly captures(none) %1, i32 noundef %2, i32 noundef %3, ptr noundef writeonly captures(none) %4, ptr noundef writeonly captures(none) %5, ptr noundef writeonly captures(none) initializes((0, 4)) %6, ptr noundef writeonly captures(none) initializes((0, 4)) %7) #1 {
  %9 = load float, ptr %1, align 4, !tbaa !49
  %10 = getelementptr inbounds nuw i8, ptr %1, i64 4
  %11 = load float, ptr %10, align 4, !tbaa !49
  %12 = tail call nsz float @hypotf(float noundef %9, float noundef %11) #19
  %13 = fcmp nsz ogt float %12, 0.000000e+00
  %14 = select nsz i1 %13, float %12, float 1.000000e+00
  %15 = getelementptr inbounds nuw i8, ptr %1, i64 8
  %16 = load float, ptr %15, align 4, !tbaa !49
  %17 = tail call nsz float @llvm.atan2.f32(float %12, float %16)
  %18 = fpext nsz float %17 to double
  %19 = fdiv nsz double %18, 0x400921FB54442D18
  %20 = fptrunc nsz double %19 to float
  %21 = fdiv nsz float %9, %14
  %22 = fmul nsz float %21, %20
  %23 = getelementptr inbounds nuw i8, ptr %0, i64 292
  %24 = load float, ptr %23, align 4, !tbaa !49
  %25 = fdiv nsz float %22, %24
  %26 = fdiv nsz float %11, %14
  %27 = fmul nsz float %26, %20
  %28 = getelementptr inbounds nuw i8, ptr %0, i64 296
  %29 = load float, ptr %28, align 4, !tbaa !49
  %30 = fdiv nsz float %27, %29
  %31 = tail call nsz float @llvm.fabs.f32(float %25)
  %or.cond = fcmp nsz olt float %31, 5.000000e-01
  %32 = tail call nsz float @llvm.fabs.f32(float %30)
  %33 = fcmp nsz olt float %32, 5.000000e-01
  %spec.select = select i1 %or.cond, i1 %33, i1 false
  %34 = fmul nsz float %25, 2.000000e+00
  %35 = sitofp i32 %2 to float
  %36 = tail call nsz float @llvm.fmuladd.f32(float %34, float 5.000000e-01, float 5.000000e-01)
  %37 = fadd nsz float %35, -1.000000e+00
  %38 = fmul nsz float %37, %36
  %39 = fmul nsz float %30, 2.000000e+00
  %40 = sitofp i32 %3 to float
  %41 = tail call nsz float @llvm.fmuladd.f32(float %39, float 5.000000e-01, float 5.000000e-01)
  %42 = fadd nsz float %40, -1.000000e+00
  %43 = fmul nsz float %42, %41
  %44 = tail call nsz float @llvm.floor.f32(float %38)
  %45 = fptosi float %44 to i32
  %46 = tail call nsz float @llvm.floor.f32(float %43)
  %47 = fptosi float %46 to i32
  %48 = sitofp i32 %45 to float
  %49 = fsub nsz float %38, %48
  %50 = select nsz i1 %spec.select, float %49, float 0.000000e+00
  store float %50, ptr %6, align 4, !tbaa !49
  %51 = sitofp i32 %47 to float
  %52 = fsub nsz float %43, %51
  %53 = select nsz i1 %spec.select, float %52, float 0.000000e+00
  store float %53, ptr %7, align 4, !tbaa !49
  br i1 %spec.select, label %.preheader.us.preheader, label %.preheader

.preheader.us.preheader:                          ; preds = %8
  %54 = sext i32 %45 to i64
  %55 = sext i32 %47 to i64
  br label %.preheader.us

.preheader.us:                                    ; preds = %.preheader.us.preheader, %.split.us.us
  %indvars.iv73 = phi i64 [ 0, %.preheader.us.preheader ], [ %indvars.iv.next74, %.split.us.us ]
  %56 = add nsw i64 %indvars.iv73, %55
  %57 = trunc nsw i64 %56 to i32
  %58 = tail call i32 @llvm.smin.i32(i32 %57, i32 %3)
  %.inv57.us = icmp sgt i64 %56, 0
  %59 = trunc i32 %58 to i16
  %60 = add i16 %59, -1
  %61 = select i1 %.inv57.us, i16 %60, i16 0
  br label %62

62:                                               ; preds = %62, %.preheader.us
  %indvars.iv69 = phi i64 [ %indvars.iv.next70, %62 ], [ 0, %.preheader.us ]
  %63 = add nsw i64 %indvars.iv69, %54
  %64 = trunc nsw i64 %63 to i32
  %65 = tail call i32 @llvm.smin.i32(i32 %64, i32 %2)
  %.inv.us.us = icmp sgt i64 %63, 0
  %66 = trunc i32 %65 to i16
  %67 = add i16 %66, -1
  %68 = select i1 %.inv.us.us, i16 %67, i16 0
  %69 = getelementptr inbounds nuw [4 x i16], ptr %4, i64 %indvars.iv73, i64 %indvars.iv69
  store i16 %68, ptr %69, align 2, !tbaa !15
  %70 = getelementptr inbounds nuw [4 x i16], ptr %5, i64 %indvars.iv73, i64 %indvars.iv69
  store i16 %61, ptr %70, align 2, !tbaa !15
  %indvars.iv.next70 = add nuw nsw i64 %indvars.iv69, 1
  %exitcond72.not = icmp eq i64 %indvars.iv.next70, 4
  br i1 %exitcond72.not, label %.split.us.us, label %62, !llvm.loop !211

.split.us.us:                                     ; preds = %62
  %indvars.iv.next74 = add nuw nsw i64 %indvars.iv73, 1
  %exitcond76.not = icmp eq i64 %indvars.iv.next74, 4
  br i1 %exitcond76.not, label %.split62.us, label %.preheader.us, !llvm.loop !212

.preheader:                                       ; preds = %8, %.split
  %indvars.iv65 = phi i64 [ %indvars.iv.next66, %.split ], [ 0, %8 ]
  br label %72

.split62.us:                                      ; preds = %.split, %.split.us.us
  %71 = zext i1 %spec.select to i32
  ret i32 %71

.split:                                           ; preds = %72
  %indvars.iv.next66 = add nuw nsw i64 %indvars.iv65, 1
  %exitcond68.not = icmp eq i64 %indvars.iv.next66, 4
  br i1 %exitcond68.not, label %.split62.us, label %.preheader, !llvm.loop !212

72:                                               ; preds = %.preheader, %72
  %indvars.iv = phi i64 [ 0, %.preheader ], [ %indvars.iv.next, %72 ]
  %73 = getelementptr inbounds nuw [4 x i16], ptr %4, i64 %indvars.iv65, i64 %indvars.iv
  store i16 0, ptr %73, align 2, !tbaa !15
  %74 = getelementptr inbounds nuw [4 x i16], ptr %5, i64 %indvars.iv65, i64 %indvars.iv
  store i16 0, ptr %74, align 2, !tbaa !15
  %indvars.iv.next = add nuw nsw i64 %indvars.iv, 1
  %exitcond.not = icmp eq i64 %indvars.iv.next, 4
  br i1 %exitcond.not, label %.split, label %72, !llvm.loop !211
}